target datalayout = "e-m:e-p270:32:32-p271:32:32-p272:64:64-i64:64-i128:128-f80:128-n8:16:32:64-S128"
target triple = "x86_64-pc-linux-gnu"

%struct.test_enum = type { ptr, i32 }
%struct.SSL_TEST_CTX = type { i32, i32, i32, i32, i32, %struct.SSL_TEST_EXTRA_CONF, %struct.SSL_TEST_EXTRA_CONF, i32, i32, i32, i32, i32, i32, i32, ptr, ptr, i32, i32, i32, i32, i32, ptr, i32, i32, i32, ptr, i32, i32, i32, i32, i32, ptr, ptr, ptr, ptr }
%struct.SSL_TEST_EXTRA_CONF = type { %struct.SSL_TEST_CLIENT_CONF, %struct.SSL_TEST_SERVER_CONF, %struct.SSL_TEST_SERVER_CONF }
%struct.SSL_TEST_CLIENT_CONF = type { i32, i32, i32, ptr, ptr, i32, ptr, ptr, ptr, i32, i32 }
%struct.SSL_TEST_SERVER_CONF = type { i32, ptr, ptr, i32, i32, ptr, ptr, i32, ptr }

; Function Attrs: nounwind uwtable
define internal i32 @parse_enum(ptr noundef %0, i64 noundef %1, ptr noundef %2, ptr noundef %3) #0 {
  %5 = alloca i32, align 4
  %6 = alloca ptr, align 8
  %7 = alloca i64, align 8
  %8 = alloca ptr, align 8
  %9 = alloca ptr, align 8
  %10 = alloca i64, align 8
  %11 = alloca i32, align 4
  store ptr %0, ptr %6, align 8, !tbaa !8
  store i64 %1, ptr %7, align 8, !tbaa !10
  store ptr %2, ptr %8, align 8, !tbaa !77
  store ptr %3, ptr %9, align 8, !tbaa !38
  call void @llvm.lifetime.start.p0(i64 8, ptr %10) #7
  store i64 0, ptr %10, align 8, !tbaa !10
  br label %12

12:                                               ; preds = %33, %4
  %13 = load i64, ptr %10, align 8, !tbaa !10
  %14 = load i64, ptr %7, align 8, !tbaa !10
  %15 = icmp ult i64 %13, %14
  br i1 %15, label %16, label %36

16:                                               ; preds = %12
  %17 = load ptr, ptr %6, align 8, !tbaa !8
  %18 = load i64, ptr %10, align 8, !tbaa !10
  %19 = getelementptr inbounds nuw %struct.test_enum, ptr %17, i64 %18
  %20 = getelementptr inbounds nuw %struct.test_enum, ptr %19, i32 0, i32 0
  %21 = load ptr, ptr %20, align 8, !tbaa !15
  %22 = load ptr, ptr %9, align 8, !tbaa !38
  %23 = call i32 @strcmp(ptr noundef %21, ptr noundef %22) #8
  %24 = icmp eq i32 %23, 0
  br i1 %24, label %25, label %32

25:                                               ; preds = %16
  %26 = load ptr, ptr %6, align 8, !tbaa !8
  %27 = load i64, ptr %10, align 8, !tbaa !10
  %28 = getelementptr inbounds nuw %struct.test_enum, ptr %26, i64 %27
  %29 = getelementptr inbounds nuw %struct.test_enum, ptr %28, i32 0, i32 1
  %30 = load i32, ptr %29, align 8, !tbaa !12
  %31 = load ptr, ptr %8, align 8, !tbaa !77
  store i32 %30, ptr %31, align 4, !tbaa !4
  store i32 1, ptr %5, align 4
  store i32 1, ptr %11, align 4
  br label %37

32:                                               ; preds = %16
  br label %33

33:                                               ; preds = %32
  %34 = load i64, ptr %10, align 8, !tbaa !10
  %35 = add i64 %34, 1
  store i64 %35, ptr %10, align 8, !tbaa !10
  br label %12, !llvm.loop !79

36:                                               ; preds = %12
  store i32 0, ptr %5, align 4
  store i32 1, ptr %11, align 4
  br label %37

37:                                               ; preds = %36, %25
  call void @llvm.lifetime.end.p0(i64 8, ptr %10) #7
  %38 = load i32, ptr %5, align 4
  ret i32 %38
}

; Function Attrs: nounwind uwtable
define internal i32 @parse_alert(ptr noundef %0, ptr noundef %1) #0 {
  %3 = alloca ptr, align 8
  %4 = alloca ptr, align 8
  store ptr %0, ptr %3, align 8, !tbaa !77
  store ptr %1, ptr %4, align 8, !tbaa !38
  %5 = load ptr, ptr %3, align 8, !tbaa !77
  %6 = load ptr, ptr %4, align 8, !tbaa !38
  %7 = call i32 @parse_enum(ptr noundef @ssl_alerts, i64 noundef 7, ptr noundef %5, ptr noundef %6)
  ret i32 %7
}

; Function Attrs: nounwind uwtable
define internal i32 @parse_server_alert(ptr noundef %0, ptr noundef %1) #0 {
  %3 = alloca ptr, align 8
  %4 = alloca ptr, align 8
  store ptr %0, ptr %3, align 8, !tbaa !8
  store ptr %1, ptr %4, align 8, !tbaa !38
  %5 = load ptr, ptr %3, align 8, !tbaa !8
  %6 = getelementptr inbounds nuw %struct.SSL_TEST_CTX, ptr %5, i32 0, i32 9
  %7 = load ptr, ptr %4, align 8, !tbaa !38
  %8 = call i32 @parse_alert(ptr noundef %6, ptr noundef %7)
  ret i32 %8
}