; Function Attrs: nofree nounwind memory(read, argmem: readwrite, inaccessiblemem: none) uwtable
define internal range(i32 0, 2) i32 @parse_server_alert(ptr noundef writeonly captures(none) %0, ptr noundef readonly captures(none) %1) #5 {
  %3 = getelementptr inbounds nuw i8, ptr %0, i64 432
  br label %6

4:                                                ; preds = %6
  %5 = add nuw nsw i64 %.010.i.i, 1
  %exitcond.not.i.i = icmp eq i64 %5, 7
  br i1 %exitcond.not.i.i, label %parse_alert.exit, label %6, !llvm.loop !57

6:                                                ; preds = %4, %2
  %.010.i.i = phi i64 [ 0, %2 ], [ %5, %4 ]
  %7 = getelementptr inbounds nuw %struct.test_enum, ptr @ssl_alerts, i64 %.010.i.i
  %8 = load ptr, ptr %7, align 16, !tbaa !13
  %9 = tail call i32 @strcmp(ptr noundef nonnull dereferenceable(1) %8, ptr noundef nonnull readonly dereferenceable(1) %1) #9
  %10 = icmp eq i32 %9, 0
  br i1 %10, label %11, label %4

11:                                               ; preds = %6
  %12 = getelementptr inbounds nuw i8, ptr %7, i64 8
  %13 = load i32, ptr %12, align 8, !tbaa !6
  store i32 %13, ptr %3, align 4, !tbaa !67
  br label %parse_alert.exit

parse_alert.exit:                                 ; preds = %4, %11
  %.09.i.i = phi i32 [ 1, %11 ], [ 0, %4 ]
  ret i32 %.09.i.i
}